; Function Attrs: mustprogress nofree norecurse nosync nounwind willreturn memory(argmem: readwrite) uwtable
define internal noundef range(i32 -1, 2) i32 @_ZL15luauF_vectorabsP9lua_StateP10lua_TValueS2_iS2_i(ptr readnone captures(none) %0, ptr noundef writeonly captures(none) %1, ptr noundef readonly captures(none) %2, i32 noundef %3, ptr readnone captures(none) %4, i32 noundef %5) #1 {
  %7 = icmp sgt i32 %5, 0
  %8 = icmp slt i32 %3, 2
  %or.cond = and i1 %8, %7
  br i1 %or.cond, label %9, label %25

9:                                                ; preds = %6
  %10 = getelementptr inbounds nuw i8, ptr %2, i64 12
  %11 = load i32, ptr %10, align 4, !tbaa !4
  %12 = icmp eq i32 %11, 4
  br i1 %12, label %13, label %25

13:                                               ; preds = %9
  %14 = load float, ptr %2, align 4, !tbaa !51
  %15 = tail call float @llvm.fabs.f32(float %14)
  store float %15, ptr %1, align 4, !tbaa !51
  %16 = getelementptr inbounds nuw i8, ptr %2, i64 4
  %17 = load float, ptr %16, align 4, !tbaa !51
  %18 = tail call float @llvm.fabs.f32(float %17)
  %19 = getelementptr inbounds nuw i8, ptr %1, i64 4
  store float %18, ptr %19, align 4, !tbaa !51
  %20 = getelementptr inbounds nuw i8, ptr %2, i64 8
  %21 = load float, ptr %20, align 4, !tbaa !51
  %22 = tail call float @llvm.fabs.f32(float %21)
  %23 = getelementptr inbounds nuw i8, ptr %1, i64 8
  store float %22, ptr %23, align 4, !tbaa !51
  %24 = getelementptr inbounds nuw i8, ptr %1, i64 12
  store i32 4, ptr %24, align 4, !tbaa !4
  br label %25

25:                                               ; preds = %6, %9, %13
  %.0 = phi i32 [ 1, %13 ], [ -1, %9 ], [ -1, %6 ]
  ret i32 %.0
}